target datalayout = "e-m:e-p270:32:32-p271:32:32-p272:64:64-i64:64-i128:128-f80:128-n8:16:32:64-S128"
target triple = "x86_64-unknown-linux-gnu"

%struct.TypeInfo = type { ptr, ptr, i64, i64, ptr, ptr, ptr, i8, i64, ptr, ptr, ptr, ptr }
%struct.E1000Info = type { ptr, i16, i8, i16 }

@e1000_base_info = internal constant %struct.TypeInfo { ptr @.str, ptr @.str.1, i64 208592, i64 0, ptr @e1000_instance_init, ptr null, ptr null, i8 1, i64 240, ptr null, ptr null, ptr null, ptr @.compoundliteral }, align 8
@e1000_devices = internal constant [3 x %struct.E1000Info] [%struct.E1000Info { ptr @.str.8, i16 4110, i8 3, i16 3104 }, %struct.E1000Info { ptr @.str.9, i16 4108, i8 3, i16 3120 }, %struct.E1000Info { ptr @.str.10, i16 4111, i8 3, i16 3104 }], align 16
@.str = private unnamed_addr constant [11 x i8] c"e1000-base\00", align 1

; Function Attrs: nounwind sspstrong uwtable
define internal void @e1000_register_types() #0 {
entry:
  %i = alloca i32, align 4
  %info = alloca ptr, align 8
  %type_info = alloca %struct.TypeInfo, align 8
  %call = call ptr @type_register_static(ptr noundef @e1000_base_info)
  store i32 0, ptr %i, align 4
  br label %for.cond

for.cond:                                         ; preds = %for.inc, %entry
  %0 = load i32, ptr %i, align 4
  %conv = sext i32 %0 to i64
  %cmp = icmp ult i64 %conv, 3
  br i1 %cmp, label %for.body, label %for.end

for.body:                                         ; preds = %for.cond
  %1 = load i32, ptr %i, align 4
  %idxprom = sext i32 %1 to i64
  %arrayidx = getelementptr [3 x %struct.E1000Info], ptr @e1000_devices, i64 0, i64 %idxprom
  store ptr %arrayidx, ptr %info, align 8
  call void @llvm.memset.p0.i64(ptr align 8 %type_info, i8 0, i64 104, i1 false)
  %2 = load ptr, ptr %info, align 8
  %name = getelementptr inbounds %struct.E1000Info, ptr %2, i32 0, i32 0
  %3 = load ptr, ptr %name, align 8
  %name2 = getelementptr inbounds %struct.TypeInfo, ptr %type_info, i32 0, i32 0
  store ptr %3, ptr %name2, align 8
  %parent = getelementptr inbounds %struct.TypeInfo, ptr %type_info, i32 0, i32 1
  store ptr @.str, ptr %parent, align 8
  %4 = load ptr, ptr %info, align 8
  %class_data = getelementptr inbounds %struct.TypeInfo, ptr %type_info, i32 0, i32 11
  store ptr %4, ptr %class_data, align 8
  %class_init = getelementptr inbounds %struct.TypeInfo, ptr %type_info, i32 0, i32 9
  store ptr @e1000_class_init, ptr %class_init, align 8
  %call3 = call ptr @type_register(ptr noundef %type_info)
  br label %for.inc

for.inc:                                          ; preds = %for.body
  %5 = load i32, ptr %i, align 4
  %inc = add i32 %5, 1
  store i32 %inc, ptr %i, align 4
  br label %for.cond, !llvm.loop !5

for.end:                                          ; preds = %for.cond
  ret void
}