; Function Attrs: nounwind sspstrong uwtable
define internal void @e1000_register_types() #0 {
entry:
  %type_info = alloca %struct.TypeInfo, align 8
  %call = tail call ptr @type_register_static(ptr noundef nonnull @e1000_base_info) #13
  %parent = getelementptr inbounds nuw i8, ptr %type_info, i64 8
  %class_data = getelementptr inbounds nuw i8, ptr %type_info, i64 88
  %class_init = getelementptr inbounds nuw i8, ptr %type_info, i64 72
  %0 = getelementptr inbounds nuw i8, ptr %type_info, i64 16
  br label %for.body

for.body:                                         ; preds = %entry, %for.body
  %indvars.iv = phi i64 [ 0, %entry ], [ %indvars.iv.next, %for.body ]
  %arrayidx = getelementptr [3 x %struct.E1000Info], ptr @e1000_devices, i64 0, i64 %indvars.iv
  call void @llvm.memset.p0.i64(ptr noundef nonnull align 8 dereferenceable(104) %0, i8 0, i64 88, i1 false)
  %1 = load ptr, ptr %arrayidx, align 16
  store ptr %1, ptr %type_info, align 8
  store ptr @.str, ptr %parent, align 8
  store ptr %arrayidx, ptr %class_data, align 8
  store ptr @e1000_class_init, ptr %class_init, align 8
  %call3 = call ptr @type_register(ptr noundef nonnull %type_info) #13
  %indvars.iv.next = add nuw nsw i64 %indvars.iv, 1
  %exitcond.not = icmp eq i64 %indvars.iv.next, 3
  br i1 %exitcond.not, label %for.end, label %for.body, !llvm.loop !5

for.end:                                          ; preds = %for.body
  ret void
}